; Function Attrs: mustprogress uwtable
define hidden noundef zeroext i1 @_ZN3dpx17ElementReadStream4ReadERKNS_6HeaderEilPvm(ptr noundef nonnull readonly align 8 captures(none) dereferenceable(16) %0, ptr noundef nonnull align 4 dereferenceable(2049) %1, i32 noundef %2, i64 noundef %3, ptr noundef %4, i64 noundef %5) unnamed_addr #7 align 2 {
  %or.cond.i = icmp ugt i32 %2, 7
  br i1 %or.cond.i, label %_ZNK3dpx13GenericHeader10DataOffsetEi.exit, label %7

7:                                                ; preds = %6
  %8 = getelementptr inbounds nuw i8, ptr %1, i64 780
  %narrow.i = mul nuw nsw i32 %2, 72
  %9 = zext nneg i32 %narrow.i to i64
  %10 = getelementptr inbounds nuw i8, ptr %8, i64 %9
  %11 = getelementptr inbounds nuw i8, ptr %10, i64 28
  %12 = load i32, ptr %11, align 4, !tbaa !11
  %13 = zext i32 %12 to i64
  br label %_ZNK3dpx13GenericHeader10DataOffsetEi.exit

_ZNK3dpx13GenericHeader10DataOffsetEi.exit:       ; preds = %6, %7
  %.0.i = phi i64 [ %13, %7 ], [ 4294967295, %6 ]
  %14 = add nsw i64 %.0.i, %3
  %15 = getelementptr inbounds nuw i8, ptr %0, i64 8
  %16 = load ptr, ptr %15, align 8, !tbaa !6
  %17 = load ptr, ptr %16, align 8, !tbaa !3
  %18 = getelementptr inbounds nuw i8, ptr %17, i64 48
  %19 = load ptr, ptr %18, align 8
  %20 = tail call noundef zeroext i1 %19(ptr noundef nonnull align 8 dereferenceable(16) %16, i64 noundef %14, i32 noundef 0)
  br i1 %20, label %21, label %28

21:                                               ; preds = %_ZNK3dpx13GenericHeader10DataOffsetEi.exit
  %22 = load ptr, ptr %15, align 8, !tbaa !6
  %23 = load ptr, ptr %22, align 8, !tbaa !3
  %24 = getelementptr inbounds nuw i8, ptr %23, i64 24
  %25 = load ptr, ptr %24, align 8
  %26 = tail call noundef i64 %25(ptr noundef nonnull align 8 dereferenceable(16) %22, ptr noundef %4, i64 noundef %5)
  %.not = icmp eq i64 %26, %5
  br i1 %.not, label %27, label %28

27:                                               ; preds = %21
  tail call void @_ZN3dpx17ElementReadStream15EndianDataCheckERKNS_6HeaderEiPvm(ptr nonnull align 8 poison, ptr noundef nonnull align 4 dereferenceable(2049) %1, i32 noundef %2, ptr noundef %4, i64 noundef %5)
  br label %28

28:                                               ; preds = %21, %_ZNK3dpx13GenericHeader10DataOffsetEi.exit, %27
  %.0 = phi i1 [ true, %27 ], [ false, %_ZNK3dpx13GenericHeader10DataOffsetEi.exit ], [ false, %21 ]
  ret i1 %.0
}